target datalayout = "e-m:e-p270:32:32-p271:32:32-p272:64:64-i64:64-i128:128-f80:128-n8:16:32:64-S128"
target triple = "x86_64-pc-linux-gnu"

%class.LibRaw = type { ptr, %struct.libraw_data_t, ptr, %struct.libraw_internal_data_t, [2048 x %struct.decode], ptr, ptr, [10 x %struct.tiff_ifd_t], %class.libraw_memmgr, %struct.libraw_callbacks_t, { i64, i64 }, { i64, i64 }, { i64, i64 }, ptr, ptr, ptr, i64, ptr, ptr, ptr, ptr }
%struct.libraw_data_t = type { ptr, %struct.libraw_image_sizes_t, %struct.libraw_iparams_t, %struct.libraw_lensinfo_t, %struct.libraw_makernotes_t, %struct.libraw_shootinginfo_t, %struct.libraw_output_params_t, %struct.libraw_raw_unpack_params_t, i32, i32, %struct.libraw_colordata_t, %struct.libraw_imgother_t, %struct.libraw_thumbnail_t, %struct.libraw_thumbnail_list_t, %struct.libraw_rawdata_t, ptr }
%struct.libraw_image_sizes_t = type { i16, i16, i16, i16, i16, i16, i16, i16, i32, double, i32, [8 x [4 x i32]], i16, [2 x %struct.libraw_raw_inset_crop_t] }
%struct.libraw_raw_inset_crop_t = type { i16, i16, i16, i16 }
%struct.libraw_iparams_t = type { [4 x i8], [64 x i8], [64 x i8], [64 x i8], [64 x i8], [64 x i8], i32, i32, i32, i32, i32, i32, [6 x [6 x i8]], [6 x [6 x i8]], [5 x i8], i32, ptr }
%struct.libraw_lensinfo_t = type { float, float, float, float, float, [128 x i8], [128 x i8], [128 x i8], [128 x i8], i16, %struct.libraw_nikonlens_t, %struct.libraw_dnglens_t, %struct.libraw_makernotes_lens_t }
%struct.libraw_nikonlens_t = type { float, i8, i8, i8, i8 }
%struct.libraw_dnglens_t = type { float, float, float, float }
%struct.libraw_makernotes_lens_t = type { i64, [128 x i8], i16, i16, i64, i16, i16, [64 x i8], i16, [16 x i8], [16 x i8], float, float, float, float, float, float, float, float, float, float, float, float, float, float, float, i64, [128 x i8], i64, [128 x i8], i64, [128 x i8], i16, float }
%struct.libraw_makernotes_t = type { %struct.libraw_canon_makernotes_t, %struct.libraw_nikon_makernotes_t, %struct.libraw_hasselblad_makernotes_t, %struct.libraw_fuji_info_t, %struct.libraw_olympus_makernotes_t, %struct.libraw_sony_info_t, %struct.libraw_kodak_makernotes_t, %struct.libraw_panasonic_makernotes_t, %struct.libraw_pentax_makernotes_t, %struct.libraw_p1_makernotes_t, %struct.libraw_ricoh_makernotes_t, %struct.libraw_samsung_makernotes_t, %struct.libraw_metadata_common_t }
%struct.libraw_canon_makernotes_t = type { i32, i32, i32, i32, [4 x i32], i32, [4 x i32], i16, i16, i8, i16, i16, i16, i16, i16, i16, i16, i16, i16, i16, i16, i16, i16, i32, float, i16, i16, i16, i32, i16, i32, i32, i16, i32, %struct.libraw_area_t, %struct.libraw_area_t, %struct.libraw_area_t, %struct.libraw_area_t, %struct.libraw_area_t, [2 x i16] }
%struct.libraw_area_t = type { i16, i16, i16, i16 }
%struct.libraw_nikon_makernotes_t = type { double, i16, i16, [7 x i8], i8, i8, [13 x i8], [20 x i8], [4 x i8], [4 x i8], [4 x i8], i8, i8, i8, i8, i8, [2 x i8], i8, i8, i8, i8, i8, [4 x i8], [4 x i8], i8, i16, i32, i32, i32, i32, [4 x double], i8, i8, i8, i32, i32, i32, i8, [4 x i16], i16, %struct.libraw_sensor_highspeed_crop_t, i16, i16, i16, i32, [20 x i8], [20 x i8], i32, i16, double, double, double }
%struct.libraw_sensor_highspeed_crop_t = type { i16, i16, i16, i16 }
%struct.libraw_hasselblad_makernotes_t = type { i32, double, [8 x i8], [64 x i8], [64 x i8], i32, i32, i32, i32, [32 x i8], [64 x i8], i32, [2 x i32], [2 x i32], [4 x [3 x double]] }
%struct.libraw_fuji_info_t = type { float, i16, i16, i16, i16, i16, i16, i16, i16, [33 x i8], [33 x i8], float, i16, i16, [2 x i16], i16, i32, i32, i16, [3 x i16], i16, i16, i16, i16, i16, i32, i16, [13 x i8], [5 x i8], [5 x i8], i32, i16, i32, i16, [9 x i16], [32 x i32], i32, i32, i32, [2 x float], i32 }
%struct.libraw_olympus_makernotes_t = type { [6 x i8], i16, [2 x i32], [5 x i16], i16, [2 x i16], i16, i16, [64 x i32], [5 x double], i16, i8, [3 x i16], [3 x i32], i16, i16, i16, i16, double, [4 x i16], [2 x i32], i8, i32, i16, i16 }
%struct.libraw_sony_info_t = type { i16, i8, i8, i32, i8, i32, i8, i8, i16, [2 x i16], i8, i8, i16, [10 x i8], i8, i8, [4 x i16], i16, i8, i8, i8, i16, i32, i16, [2 x i16], i16, i16, i16, i16, i16, i16, i16, i32, float, i16, i32, i32, i16, [20 x i8], i32, i16, i32, i8, i8, i16, i16, i16, i16, i16, i16, i16, i16, i16, i32, i16, [16 x i8], float }
%struct.libraw_kodak_makernotes_t = type { i16, i16, i16, i16, i16, i16, [3 x [3 x float]], [3 x [3 x float]], [3 x [3 x float]], [3 x [3 x float]], [3 x [3 x float]], [3 x [3 x float]], i16, i16, i16, i16, float, float }
%struct.libraw_panasonic_makernotes_t = type { i16, i16, [8 x float], i32, float, [3 x i32], i16, i16, i32, i32 }
%struct.libraw_pentax_makernotes_t = type { [4 x i8], [2 x i16], [2 x i16], i16, i32, i32, i16, i16, i8, i8, i16 }
%struct.libraw_p1_makernotes_t = type { [64 x i8], [64 x i8], [256 x i8], [64 x i8] }
%struct.libraw_ricoh_makernotes_t = type { i16, [2 x i32], [2 x i32], i16, i32, i32, i32, i32, i16, i16, i16, i16, i16, i16, double, double }
%struct.libraw_samsung_makernotes_t = type { [4 x i32], [4 x i32], [2 x i32], [11 x i32], double, i32, [32 x i8] }
%struct.libraw_metadata_common_t = type { float, float, float, float, float, float, float, float, float, float, float, float, float, float, float, float, i16, [128 x i8], float, [4 x %struct.libraw_afinfo_item_t], i32 }
%struct.libraw_afinfo_item_t = type { i32, i16, i32, i32, ptr }
%struct.libraw_shootinginfo_t = type { i16, i16, i16, i16, i16, i16, i16, [64 x i8], [64 x i8] }
%struct.libraw_output_params_t = type { [4 x i32], [4 x i32], [4 x double], [6 x double], [4 x float], float, float, i32, i32, i32, i32, i32, i32, i32, ptr, ptr, ptr, ptr, i32, i32, i32, i32, i32, i32, [4 x i32], i32, i32, float, float, i32, i32, i32, i32, i32, i32, i32, i32, float, float, i32, i32 }
%struct.libraw_raw_unpack_params_t = type { i32, i32, i32, i32, i32, i32, i32, float, [5 x i8], ptr }
%struct.libraw_colordata_t = type { [65536 x i16], [4104 x i32], i32, i32, i32, [4 x i64], float, float, [8 x [8 x i16]], [4 x float], [4 x float], [3 x [4 x float]], [3 x [4 x float]], [3 x [4 x float]], [4 x [3 x float]], %struct.ph1_t, float, float, [64 x i8], [64 x i8], [64 x i8], [64 x i8], [17 x i8], [64 x i8], ptr, i32, [8 x i32], [2 x %struct.libraw_dng_color_t], %struct.libraw_dng_levels_t, [256 x [4 x i32]], [64 x [5 x float]], i32, [2 x %struct.libraw_P1_color_t], i32, i32 }
%struct.ph1_t = type { i32, i32, i32, i32, i32, i32, i32, i32, float }
%struct.libraw_dng_color_t = type { i32, i16, [4 x [4 x float]], [4 x [3 x float]], [3 x [4 x float]] }
%struct.libraw_dng_levels_t = type { i32, [4104 x i32], i32, [4104 x float], float, [4 x i32], [4 x i16], [4 x float], i32, [4 x float], [4 x float], float, float }
%struct.libraw_P1_color_t = type { [9 x float] }
%struct.libraw_imgother_t = type { float, float, float, float, i64, i32, [32 x i32], %struct.libraw_gps_info_t, [512 x i8], [64 x i8], [4 x float] }
%struct.libraw_gps_info_t = type { [3 x float], [3 x float], [3 x float], float, i8, i8, i8, i8, i8 }
%struct.libraw_thumbnail_t = type { i32, i16, i16, i32, i32, ptr }
%struct.libraw_thumbnail_list_t = type { i32, [8 x %struct.libraw_thumbnail_item_t] }
%struct.libraw_thumbnail_item_t = type { i32, i16, i16, i16, i32, i32, i64 }
%struct.libraw_rawdata_t = type { ptr, ptr, ptr, ptr, ptr, ptr, ptr, ptr, ptr, %struct.libraw_iparams_t, %struct.libraw_image_sizes_t, %struct.libraw_internal_output_params_t, %struct.libraw_colordata_t }
%struct.libraw_internal_output_params_t = type { i32, i32, i32, i16, i16 }
%struct.libraw_internal_data_t = type { %struct.internal_data_t, %struct.libraw_internal_output_params_t, %struct.output_data_t, %struct.identify_data_t, %struct.unpacker_data_t }
%struct.internal_data_t = type { ptr, ptr, i32, ptr, i64, i64, [4 x i32] }
%struct.output_data_t = type { ptr, ptr }
%struct.identify_data_t = type { i32, i64, i64, i32, i32, i32 }
%struct.unpacker_data_t = type { i16, [4 x i16], [3 x i16], i32, i64, i64, i64, i64, i64, i64, i32, i32, i32, i32, i32, i32, i32, i32, i32, i32, i32, i32, i32, i32, i32, i32, i32, i64, i32, i32, i32, i32, i32, i32, i32, i32, i32, %struct.pana8_tags_t, [16 x %struct.crx_data_header_t], i32, i32, i16, i16, i32, i32, i32, i32, i32, i32, i32, [20 x i32], i16 }
%struct.pana8_tags_t = type { [6 x i32], [6 x i16], i16, [4 x i16], [17 x i16], [17 x i16], [17 x i16], i16, i16, [5 x i64], [5 x i16], [5 x i32], [5 x i16], [5 x i16] }
%struct.crx_data_header_t = type { i32, i32, i32, i32, i32, i32, i32, i32, i32, i32, i32, i32, i32, i32, i32, i64, i32, ptr, i32, i32, i32, ptr, i32, ptr }
%struct.decode = type { [2 x ptr], i32 }
%struct.tiff_ifd_t = type { i32, i32, i32, i32, i32, i32, i32, i32, i32, i32, i32, i32, i32, i32, i32, ptr, i32, ptr, i32, i32, i32, i32, i32, i32, i32, float, i64, i64, i32, [2 x %struct.libraw_dng_color_t], %struct.libraw_dng_levels_t, i32 }
%class.libraw_memmgr = type <{ ptr, i32, [4 x i8] }>
%struct.libraw_callbacks_t = type { ptr, ptr, ptr, ptr, ptr, ptr, ptr, ptr, ptr, ptr, ptr, ptr, ptr, ptr, ptr, ptr, ptr }

; Function Attrs: mustprogress nounwind uwtable
define linkonce_odr noundef i32 @_ZN6LibRaw2FCEii(ptr noundef nonnull align 8 dereferenceable(767680) %0, i32 noundef %1, i32 noundef %2) #2 comdat align 2 {
  %4 = alloca ptr, align 8
  %5 = alloca i32, align 4
  %6 = alloca i32, align 4
  store ptr %0, ptr %4, align 8, !tbaa !6
  store i32 %1, ptr %5, align 4, !tbaa !74
  store i32 %2, ptr %6, align 4, !tbaa !74
  %7 = load ptr, ptr %4, align 8
  %8 = getelementptr inbounds nuw %class.LibRaw, ptr %7, i32 0, i32 1
  %9 = getelementptr inbounds nuw %struct.libraw_data_t, ptr %8, i32 0, i32 2
  %10 = getelementptr inbounds nuw %struct.libraw_iparams_t, ptr %9, i32 0, i32 11
  %11 = load i32, ptr %10, align 8, !tbaa !82
  %12 = load i32, ptr %5, align 4, !tbaa !74
  %13 = shl i32 %12, 1
  %14 = and i32 %13, 14
  %15 = load i32, ptr %6, align 4, !tbaa !74
  %16 = and i32 %15, 1
  %17 = or i32 %14, %16
  %18 = shl i32 %17, 1
  %19 = lshr i32 %11, %18
  %20 = and i32 %19, 3
  ret i32 %20
}

; Function Attrs: mustprogress uwtable
define void @_ZN6LibRaw7dcb_verEPA3_f(ptr noundef nonnull align 8 dereferenceable(767680) %0, ptr noundef %1) #0 align 2 {
  %3 = alloca ptr, align 8
  %4 = alloca ptr, align 8
  %5 = alloca i32, align 4
  %6 = alloca i32, align 4
  %7 = alloca i32, align 4
  %8 = alloca i32, align 4
  store ptr %0, ptr %3, align 8, !tbaa !6
  store ptr %1, ptr %4, align 8, !tbaa !11
  %9 = load ptr, ptr %3, align 8
  call void @llvm.lifetime.start.p0(i64 4, ptr %5) #6
  call void @llvm.lifetime.start.p0(i64 4, ptr %6) #6
  call void @llvm.lifetime.start.p0(i64 4, ptr %7) #6
  %10 = getelementptr inbounds nuw %class.LibRaw, ptr %9, i32 0, i32 1
  %11 = getelementptr inbounds nuw %struct.libraw_data_t, ptr %10, i32 0, i32 1
  %12 = getelementptr inbounds nuw %struct.libraw_image_sizes_t, ptr %11, i32 0, i32 3
  %13 = load i16, ptr %12, align 2, !tbaa !13
  %14 = zext i16 %13 to i32
  store i32 %14, ptr %7, align 4, !tbaa !74
  call void @llvm.lifetime.start.p0(i64 4, ptr %8) #6
  store i32 2, ptr %5, align 4, !tbaa !74
  br label %15

15:                                               ; preds = %175, %2
  %16 = load i32, ptr %5, align 4, !tbaa !74
  %17 = getelementptr inbounds nuw %class.LibRaw, ptr %9, i32 0, i32 1
  %18 = getelementptr inbounds nuw %struct.libraw_data_t, ptr %17, i32 0, i32 1
  %19 = getelementptr inbounds nuw %struct.libraw_image_sizes_t, ptr %18, i32 0, i32 2
  %20 = load i16, ptr %19, align 4, !tbaa !75
  %21 = zext i16 %20 to i32
  %22 = sub nsw i32 %21, 2
  %23 = icmp slt i32 %16, %22
  br i1 %23, label %24, label %178

24:                                               ; preds = %15
  %25 = load i32, ptr %5, align 4, !tbaa !74
  %26 = call noundef i32 @_ZN6LibRaw2FCEii(ptr noundef nonnull align 8 dereferenceable(767680) %9, i32 noundef %25, i32 noundef 2)
  %27 = and i32 %26, 1
  %28 = add nsw i32 2, %27
  store i32 %28, ptr %6, align 4, !tbaa !74
  %29 = load i32, ptr %5, align 4, !tbaa !74
  %30 = getelementptr inbounds nuw %class.LibRaw, ptr %9, i32 0, i32 1
  %31 = getelementptr inbounds nuw %struct.libraw_data_t, ptr %30, i32 0, i32 1
  %32 = getelementptr inbounds nuw %struct.libraw_image_sizes_t, ptr %31, i32 0, i32 3
  %33 = load i16, ptr %32, align 2, !tbaa !13
  %34 = zext i16 %33 to i32
  %35 = mul nsw i32 %29, %34
  %36 = load i32, ptr %6, align 4, !tbaa !74
  %37 = add nsw i32 %35, %36
  store i32 %37, ptr %8, align 4, !tbaa !74
  br label %38

38:                                               ; preds = %169, %24
  %39 = load i32, ptr %6, align 4, !tbaa !74
  %40 = load i32, ptr %7, align 4, !tbaa !74
  %41 = sub nsw i32 %40, 2
  %42 = icmp slt i32 %39, %41
  br i1 %42, label %43, label %174

43:                                               ; preds = %38
  %44 = getelementptr inbounds nuw %class.LibRaw, ptr %9, i32 0, i32 1
  %45 = getelementptr inbounds nuw %struct.libraw_data_t, ptr %44, i32 0, i32 0
  %46 = load ptr, ptr %45, align 8, !tbaa !76
  %47 = load i32, ptr %8, align 4, !tbaa !74
  %48 = load i32, ptr %7, align 4, !tbaa !74
  %49 = add nsw i32 %47, %48
  %50 = sext i32 %49 to i64
  %51 = getelementptr inbounds [4 x i16], ptr %46, i64 %50
  %52 = getelementptr inbounds [4 x i16], ptr %51, i64 0, i64 1
  %53 = load i16, ptr %52, align 2, !tbaa !77
  %54 = zext i16 %53 to i32
  %55 = getelementptr inbounds nuw %class.LibRaw, ptr %9, i32 0, i32 1
  %56 = getelementptr inbounds nuw %struct.libraw_data_t, ptr %55, i32 0, i32 0
  %57 = load ptr, ptr %56, align 8, !tbaa !76
  %58 = load i32, ptr %8, align 4, !tbaa !74
  %59 = load i32, ptr %7, align 4, !tbaa !74
  %60 = sub nsw i32 %58, %59
  %61 = sext i32 %60 to i64
  %62 = getelementptr inbounds [4 x i16], ptr %57, i64 %61
  %63 = getelementptr inbounds [4 x i16], ptr %62, i64 0, i64 1
  %64 = load i16, ptr %63, align 2, !tbaa !77
  %65 = zext i16 %64 to i32
  %66 = add nsw i32 %54, %65
  %67 = sitofp i32 %66 to double
  %68 = fdiv reassoc nsz arcp contract afn double %67, 2.000000e+00
  %69 = fptosi double %68 to i32
  %70 = icmp slt i32 %69, 65535
  br i1 %70, label %71, label %98

71:                                               ; preds = %43
  %72 = getelementptr inbounds nuw %class.LibRaw, ptr %9, i32 0, i32 1
  %73 = getelementptr inbounds nuw %struct.libraw_data_t, ptr %72, i32 0, i32 0
  %74 = load ptr, ptr %73, align 8, !tbaa !76
  %75 = load i32, ptr %8, align 4, !tbaa !74
  %76 = load i32, ptr %7, align 4, !tbaa !74
  %77 = add nsw i32 %75, %76
  %78 = sext i32 %77 to i64
  %79 = getelementptr inbounds [4 x i16], ptr %74, i64 %78
  %80 = getelementptr inbounds [4 x i16], ptr %79, i64 0, i64 1
  %81 = load i16, ptr %80, align 2, !tbaa !77
  %82 = zext i16 %81 to i32
  %83 = getelementptr inbounds nuw %class.LibRaw, ptr %9, i32 0, i32 1
  %84 = getelementptr inbounds nuw %struct.libraw_data_t, ptr %83, i32 0, i32 0
  %85 = load ptr, ptr %84, align 8, !tbaa !76
  %86 = load i32, ptr %8, align 4, !tbaa !74
  %87 = load i32, ptr %7, align 4, !tbaa !74
  %88 = sub nsw i32 %86, %87
  %89 = sext i32 %88 to i64
  %90 = getelementptr inbounds [4 x i16], ptr %85, i64 %89
  %91 = getelementptr inbounds [4 x i16], ptr %90, i64 0, i64 1
  %92 = load i16, ptr %91, align 2, !tbaa !77
  %93 = zext i16 %92 to i32
  %94 = add nsw i32 %82, %93
  %95 = sitofp i32 %94 to double
  %96 = fdiv reassoc nsz arcp contract afn double %95, 2.000000e+00
  %97 = fptosi double %96 to i32
  br label %99

98:                                               ; preds = %43
  br label %99

99:                                               ; preds = %98, %71
  %100 = phi i32 [ %97, %71 ], [ 65535, %98 ]
  %101 = icmp sgt i32 0, %100
  br i1 %101, label %102, label %103

102:                                              ; preds = %99
  br label %161

103:                                              ; preds = %99
  %104 = getelementptr inbounds nuw %class.LibRaw, ptr %9, i32 0, i32 1
  %105 = getelementptr inbounds nuw %struct.libraw_data_t, ptr %104, i32 0, i32 0
  %106 = load ptr, ptr %105, align 8, !tbaa !76
  %107 = load i32, ptr %8, align 4, !tbaa !74
  %108 = load i32, ptr %7, align 4, !tbaa !74
  %109 = add nsw i32 %107, %108
  %110 = sext i32 %109 to i64
  %111 = getelementptr inbounds [4 x i16], ptr %106, i64 %110
  %112 = getelementptr inbounds [4 x i16], ptr %111, i64 0, i64 1
  %113 = load i16, ptr %112, align 2, !tbaa !77
  %114 = zext i16 %113 to i32
  %115 = getelementptr inbounds nuw %class.LibRaw, ptr %9, i32 0, i32 1
  %116 = getelementptr inbounds nuw %struct.libraw_data_t, ptr %115, i32 0, i32 0
  %117 = load ptr, ptr %116, align 8, !tbaa !76
  %118 = load i32, ptr %8, align 4, !tbaa !74
  %119 = load i32, ptr %7, align 4, !tbaa !74
  %120 = sub nsw i32 %118, %119
  %121 = sext i32 %120 to i64
  %122 = getelementptr inbounds [4 x i16], ptr %117, i64 %121
  %123 = getelementptr inbounds [4 x i16], ptr %122, i64 0, i64 1
  %124 = load i16, ptr %123, align 2, !tbaa !77
  %125 = zext i16 %124 to i32
  %126 = add nsw i32 %114, %125
  %127 = sitofp i32 %126 to double
  %128 = fdiv reassoc nsz arcp contract afn double %127, 2.000000e+00
  %129 = fptosi double %128 to i32
  %130 = icmp slt i32 %129, 65535
  br i1 %130, label %131, label %158

131:                                              ; preds = %103
  %132 = getelementptr inbounds nuw %class.LibRaw, ptr %9, i32 0, i32 1
  %133 = getelementptr inbounds nuw %struct.libraw_data_t, ptr %132, i32 0, i32 0
  %134 = load ptr, ptr %133, align 8, !tbaa !76
  %135 = load i32, ptr %8, align 4, !tbaa !74
  %136 = load i32, ptr %7, align 4, !tbaa !74
  %137 = add nsw i32 %135, %136
  %138 = sext i32 %137 to i64
  %139 = getelementptr inbounds [4 x i16], ptr %134, i64 %138
  %140 = getelementptr inbounds [4 x i16], ptr %139, i64 0, i64 1
  %141 = load i16, ptr %140, align 2, !tbaa !77
  %142 = zext i16 %141 to i32
  %143 = getelementptr inbounds nuw %class.LibRaw, ptr %9, i32 0, i32 1
  %144 = getelementptr inbounds nuw %struct.libraw_data_t, ptr %143, i32 0, i32 0
  %145 = load ptr, ptr %144, align 8, !tbaa !76
  %146 = load i32, ptr %8, align 4, !tbaa !74
  %147 = load i32, ptr %7, align 4, !tbaa !74
  %148 = sub nsw i32 %146, %147
  %149 = sext i32 %148 to i64
  %150 = getelementptr inbounds [4 x i16], ptr %145, i64 %149
  %151 = getelementptr inbounds [4 x i16], ptr %150, i64 0, i64 1
  %152 = load i16, ptr %151, align 2, !tbaa !77
  %153 = zext i16 %152 to i32
  %154 = add nsw i32 %142, %153
  %155 = sitofp i32 %154 to double
  %156 = fdiv reassoc nsz arcp contract afn double %155, 2.000000e+00
  %157 = fptosi double %156 to i32
  br label %159

158:                                              ; preds = %103
  br label %159

159:                                              ; preds = %158, %131
  %160 = phi i32 [ %157, %131 ], [ 65535, %158 ]
  br label %161

161:                                              ; preds = %159, %102
  %162 = phi i32 [ 0, %102 ], [ %160, %159 ]
  %163 = sitofp i32 %162 to float
  %164 = load ptr, ptr %4, align 8, !tbaa !11
  %165 = load i32, ptr %8, align 4, !tbaa !74
  %166 = sext i32 %165 to i64
  %167 = getelementptr inbounds [3 x float], ptr %164, i64 %166
  %168 = getelementptr inbounds [3 x float], ptr %167, i64 0, i64 1
  store float %163, ptr %168, align 4, !tbaa !78
  br label %169

169:                                              ; preds = %161
  %170 = load i32, ptr %6, align 4, !tbaa !74
  %171 = add nsw i32 %170, 2
  store i32 %171, ptr %6, align 4, !tbaa !74
  %172 = load i32, ptr %8, align 4, !tbaa !74
  %173 = add nsw i32 %172, 2
  store i32 %173, ptr %8, align 4, !tbaa !74
  br label %38, !llvm.loop !79

174:                                              ; preds = %38
  br label %175

175:                                              ; preds = %174
  %176 = load i32, ptr %5, align 4, !tbaa !74
  %177 = add nsw i32 %176, 1
  store i32 %177, ptr %5, align 4, !tbaa !74
  br label %15, !llvm.loop !81

178:                                              ; preds = %15
  call void @llvm.lifetime.end.p0(i64 4, ptr %8) #6
  call void @llvm.lifetime.end.p0(i64 4, ptr %7) #6
  call void @llvm.lifetime.end.p0(i64 4, ptr %6) #6
  call void @llvm.lifetime.end.p0(i64 4, ptr %5) #6
  ret void
}