; Function Attrs: mustprogress nofree norecurse nosync nounwind memory(read, argmem: readwrite, inaccessiblemem: none) uwtable
define void @_ZN6LibRaw7dcb_verEPA3_f(ptr noundef nonnull readonly align 8 captures(none) dereferenceable(767680) %0, ptr noundef writeonly captures(none) %1) local_unnamed_addr #0 align 2 {
  %3 = getelementptr inbounds nuw i8, ptr %0, i64 22
  %4 = load i16, ptr %3, align 2, !tbaa !6
  %5 = zext i16 %4 to i32
  %6 = getelementptr inbounds nuw i8, ptr %0, i64 20
  %7 = load i16, ptr %6, align 4, !tbaa !71
  %8 = icmp ugt i16 %7, 4
  br i1 %8, label %.lr.ph37, label %._crit_edge38

.lr.ph37:                                         ; preds = %2
  %9 = zext i16 %7 to i32
  %10 = getelementptr inbounds nuw i8, ptr %0, i64 8
  %11 = getelementptr inbounds nuw i8, ptr %0, i64 544
  %12 = load i32, ptr %11, align 8, !tbaa !72
  %13 = add nsw i32 %5, -2
  %14 = load ptr, ptr %10, align 8
  %15 = shl nuw nsw i32 %5, 1
  %16 = add nuw nsw i32 %15, 2
  %17 = zext i16 %4 to i64
  %18 = add nsw i32 %9, -3
  br label %19

19:                                               ; preds = %.lr.ph37, %._crit_edge
  %indvars.iv = phi i32 [ %16, %.lr.ph37 ], [ %indvars.iv.next, %._crit_edge ]
  %.02735 = phi i32 [ 2, %.lr.ph37 ], [ %45, %._crit_edge ]
  %20 = shl i32 %.02735, 2
  %21 = and i32 %20, 28
  %22 = lshr i32 %12, %21
  %23 = and i32 %22, 1
  %24 = or disjoint i32 %23, 2
  %25 = icmp slt i32 %24, %13
  br i1 %25, label %.lr.ph.preheader, label %._crit_edge

.lr.ph.preheader:                                 ; preds = %19
  %26 = add i32 %indvars.iv, %23
  %27 = sext i32 %26 to i64
  br label %.lr.ph

.lr.ph:                                           ; preds = %.lr.ph.preheader, %.lr.ph
  %indvars.iv39 = phi i64 [ %27, %.lr.ph.preheader ], [ %indvars.iv.next40, %.lr.ph ]
  %.02833 = phi i32 [ %24, %.lr.ph.preheader ], [ %43, %.lr.ph ]
  %28 = add nuw nsw i64 %indvars.iv39, %17
  %29 = getelementptr inbounds nuw [4 x i16], ptr %14, i64 %28, i64 1
  %30 = load i16, ptr %29, align 2, !tbaa !73
  %31 = zext i16 %30 to i32
  %32 = sub nsw i64 %indvars.iv39, %17
  %33 = getelementptr inbounds [4 x i16], ptr %14, i64 %32, i64 1
  %34 = load i16, ptr %33, align 2, !tbaa !73
  %35 = zext i16 %34 to i32
  %36 = add nuw nsw i32 %35, %31
  %37 = uitofp nneg i32 %36 to double
  %38 = fmul reassoc nsz arcp contract afn double %37, 5.000000e-01
  %39 = fptosi double %38 to i32
  %spec.select3132 = tail call i32 @llvm.smin.i32(i32 %39, i32 65535)
  %40 = tail call i32 @llvm.smax.i32(i32 %spec.select3132, i32 0)
  %41 = uitofp nneg i32 %40 to float
  %42 = getelementptr inbounds nuw [3 x float], ptr %1, i64 %indvars.iv39, i64 1
  store float %41, ptr %42, align 4, !tbaa !74
  %43 = add nuw nsw i32 %.02833, 2
  %indvars.iv.next40 = add nuw nsw i64 %indvars.iv39, 2
  %44 = icmp slt i32 %43, %13
  br i1 %44, label %.lr.ph, label %._crit_edge, !llvm.loop !75

._crit_edge:                                      ; preds = %.lr.ph, %19
  %45 = add nuw nsw i32 %.02735, 1
  %indvars.iv.next = add nuw i32 %indvars.iv, %5
  %exitcond.not = icmp eq i32 %.02735, %18
  br i1 %exitcond.not, label %._crit_edge38, label %19, !llvm.loop !77

._crit_edge38:                                    ; preds = %._crit_edge, %2
  ret void
}